; Function Attrs: mustprogress nounwind uwtable
define hidden noundef ptr @_ZN10Dictionary10find_classEP6ThreadP6Symbol(ptr nocapture noundef nonnull readonly align 8 dereferenceable(24) %0, ptr noundef %1, ptr noundef %2) local_unnamed_addr #0 align 2 {
  %4 = tail call noundef ptr @_ZN10Dictionary9get_entryEP6ThreadP6Symbol(ptr noundef nonnull align 8 dereferenceable(24) %0, ptr noundef %1, ptr noundef %2)
  %.not = icmp eq ptr %4, null
  br i1 %.not, label %7, label %5

5:                                                ; preds = %3
  %6 = load ptr, ptr %4, align 8
  br label %7

7:                                                ; preds = %3, %5
  %8 = phi ptr [ %6, %5 ], [ null, %3 ]
  ret ptr %8
}